; Function Attrs: mustprogress nounwind uwtable
define noundef nonnull align 8 dereferenceable(216) ptr @_ZN5boost4urls8url_base16normalize_schemeEv(ptr noundef nonnull returned align 8 dereferenceable(216) %0) local_unnamed_addr #6 align 2 {
  %2 = getelementptr inbounds nuw i8, ptr %0, i64 200
  %3 = load ptr, ptr %2, align 8, !tbaa !16
  %4 = getelementptr inbounds i8, ptr %0, i64 16
  %5 = tail call noundef i64 @_ZNK5boost4urls6detail8url_impl6offsetEi(ptr noundef nonnull align 8 dereferenceable(171) %4, i32 noundef -1) #30
  %6 = getelementptr inbounds nuw i8, ptr %3, i64 %5
  %7 = load ptr, ptr %2, align 8, !tbaa !16
  %8 = tail call noundef i64 @_ZNK5boost4urls6detail8url_impl6offsetEi(ptr noundef nonnull align 8 dereferenceable(171) %4, i32 noundef 0) #30
  %9 = getelementptr inbounds nuw i8, ptr %7, i64 %8
  %10 = icmp ult ptr %6, %9
  br i1 %10, label %.lr.ph.i, label %_ZN5boost4urls8url_base13to_lower_implEi.exit

.lr.ph.i:                                         ; preds = %1, %.lr.ph.i
  %.07.i = phi ptr [ %15, %.lr.ph.i ], [ %6, %1 ]
  %11 = load i8, ptr %.07.i, align 1, !tbaa !25
  %12 = add i8 %11, -65
  %or.cond.i.i.i = icmp ult i8 %12, 26
  %13 = add nuw nsw i8 %11, 32
  %14 = select i1 %or.cond.i.i.i, i8 %13, i8 %11
  store i8 %14, ptr %.07.i, align 1, !tbaa !25
  %15 = getelementptr inbounds nuw i8, ptr %.07.i, i64 1
  %16 = icmp ult ptr %15, %9
  br i1 %16, label %.lr.ph.i, label %_ZN5boost4urls8url_base13to_lower_implEi.exit, !llvm.loop !202

_ZN5boost4urls8url_base13to_lower_implEi.exit:    ; preds = %.lr.ph.i, %1
  ret ptr %0
}